target datalayout = "e-m:e-p270:32:32-p271:32:32-p272:64:64-i64:64-i128:128-f80:128-n8:16:32:64-S128"
target triple = "x86_64-pc-linux-gnu"

%struct.ASN1_ENCODING_st = type { ptr, i64, i32 }
%struct.X509_algor_st = type { ptr, ptr }
%struct.CRYPTO_REF_COUNT = type { i32 }
%struct.X509_req_st = type { %struct.X509_req_info_st, %struct.X509_algor_st, ptr, %struct.CRYPTO_REF_COUNT, ptr, ptr, ptr, ptr }
%struct.X509_req_info_st = type { %struct.ASN1_ENCODING_st, ptr, ptr, ptr, ptr }

@.str = private unnamed_addr constant [34 x i8] c"../openssl/crypto/x509/x509_req.c\00", align 1
@__func__.i2d_re_X509_REQ_tbs = private unnamed_addr constant [20 x i8] c"i2d_re_X509_REQ_tbs\00", align 1

; Function Attrs: nounwind uwtable
define i32 @i2d_re_X509_REQ_tbs(ptr noundef %0, ptr noundef %1) #0 {
  %3 = alloca i32, align 4
  %4 = alloca ptr, align 8
  %5 = alloca ptr, align 8
  store ptr %0, ptr %4, align 8, !tbaa !42
  store ptr %1, ptr %5, align 8, !tbaa !81
  %6 = load ptr, ptr %4, align 8, !tbaa !42
  %7 = icmp eq ptr %6, null
  br i1 %7, label %8, label %9

8:                                                ; preds = %2
  call void @ERR_new()
  call void @ERR_set_debug(ptr noundef @.str, i32 noundef 346, ptr noundef @__func__.i2d_re_X509_REQ_tbs)
  call void (i32, i32, ptr, ...) @ERR_set_error(i32 noundef 11, i32 noundef 786690, ptr noundef null)
  store i32 0, ptr %3, align 4
  br label %18

9:                                                ; preds = %2
  %10 = load ptr, ptr %4, align 8, !tbaa !42
  %11 = getelementptr inbounds nuw %struct.X509_req_st, ptr %10, i32 0, i32 0
  %12 = getelementptr inbounds nuw %struct.X509_req_info_st, ptr %11, i32 0, i32 0
  %13 = getelementptr inbounds nuw %struct.ASN1_ENCODING_st, ptr %12, i32 0, i32 2
  store i32 1, ptr %13, align 8, !tbaa !67
  %14 = load ptr, ptr %4, align 8, !tbaa !42
  %15 = getelementptr inbounds nuw %struct.X509_req_st, ptr %14, i32 0, i32 0
  %16 = load ptr, ptr %5, align 8, !tbaa !81
  %17 = call i32 @i2d_X509_REQ_INFO(ptr noundef %15, ptr noundef %16)
  store i32 %17, ptr %3, align 4
  br label %18

18:                                               ; preds = %9, %8
  %19 = load i32, ptr %3, align 4
  ret i32 %19
}