; Function Attrs: nounwind uwtable
define i32 @i2d_re_X509_REQ_tbs(ptr noundef %0, ptr noundef %1) local_unnamed_addr #0 {
  %3 = icmp eq ptr %0, null
  br i1 %3, label %4, label %5

4:                                                ; preds = %2
  tail call void @ERR_new() #8
  tail call void @ERR_set_debug(ptr noundef nonnull @.str, i32 noundef 346, ptr noundef nonnull @__func__.i2d_re_X509_REQ_tbs) #8
  tail call void (i32, i32, ptr, ...) @ERR_set_error(i32 noundef 11, i32 noundef 786690, ptr noundef null) #8
  br label %8

5:                                                ; preds = %2
  %6 = getelementptr inbounds nuw i8, ptr %0, i64 16
  store i32 1, ptr %6, align 8, !tbaa !54
  %7 = tail call i32 @i2d_X509_REQ_INFO(ptr noundef nonnull %0, ptr noundef %1) #8
  br label %8

8:                                                ; preds = %5, %4
  %.0 = phi i32 [ 0, %4 ], [ %7, %5 ]
  ret i32 %.0
}